target datalayout = "e-m:e-p270:32:32-p271:32:32-p272:64:64-i64:64-i128:128-f80:128-n8:16:32:64-S128"
target triple = "x86_64-pc-linux-gnu"

%struct.list_head = type { ptr, ptr }
%struct.walker_data = type { ptr, i32, ptr }
%struct.walker = type { ptr, ptr, ptr, ptr, ptr, i32, i32, i32, i32 }
%struct.object_request = type { ptr, %struct.object_id, ptr, i32, ptr, %struct.list_head }
%struct.object_id = type { [32 x i8], i32 }

@object_queue_head = internal global %struct.list_head { ptr @object_queue_head, ptr @object_queue_head }, align 8
@http_is_verbose = external global i32, align 4

; Function Attrs: inlinehint nounwind uwtable
define internal void @list_add_tail(ptr noundef %0, ptr noundef %1) #4 {
  %3 = alloca ptr, align 8
  %4 = alloca ptr, align 8
  store ptr %0, ptr %3, align 8, !tbaa !57
  store ptr %1, ptr %4, align 8, !tbaa !57
  %5 = load ptr, ptr %3, align 8, !tbaa !57
  %6 = load ptr, ptr %4, align 8, !tbaa !57
  %7 = getelementptr inbounds nuw %struct.list_head, ptr %6, i32 0, i32 1
  %8 = load ptr, ptr %7, align 8, !tbaa !109
  %9 = getelementptr inbounds nuw %struct.list_head, ptr %8, i32 0, i32 0
  store ptr %5, ptr %9, align 8, !tbaa !58
  %10 = load ptr, ptr %4, align 8, !tbaa !57
  %11 = load ptr, ptr %3, align 8, !tbaa !57
  %12 = getelementptr inbounds nuw %struct.list_head, ptr %11, i32 0, i32 0
  store ptr %10, ptr %12, align 8, !tbaa !58
  %13 = load ptr, ptr %4, align 8, !tbaa !57
  %14 = getelementptr inbounds nuw %struct.list_head, ptr %13, i32 0, i32 1
  %15 = load ptr, ptr %14, align 8, !tbaa !109
  %16 = load ptr, ptr %3, align 8, !tbaa !57
  %17 = getelementptr inbounds nuw %struct.list_head, ptr %16, i32 0, i32 1
  store ptr %15, ptr %17, align 8, !tbaa !109
  %18 = load ptr, ptr %3, align 8, !tbaa !57
  %19 = load ptr, ptr %4, align 8, !tbaa !57
  %20 = getelementptr inbounds nuw %struct.list_head, ptr %19, i32 0, i32 1
  store ptr %18, ptr %20, align 8, !tbaa !109
  ret void
}

; Function Attrs: inlinehint nounwind uwtable
define internal void @oidcpy(ptr noundef %0, ptr noundef %1) #4 {
  %3 = alloca ptr, align 8
  %4 = alloca ptr, align 8
  store ptr %0, ptr %3, align 8, !tbaa !34
  store ptr %1, ptr %4, align 8, !tbaa !34
  %5 = load ptr, ptr %3, align 8, !tbaa !34
  %6 = getelementptr inbounds nuw %struct.object_id, ptr %5, i32 0, i32 0
  %7 = getelementptr inbounds [32 x i8], ptr %6, i64 0, i64 0
  %8 = load ptr, ptr %4, align 8, !tbaa !34
  %9 = getelementptr inbounds nuw %struct.object_id, ptr %8, i32 0, i32 0
  %10 = getelementptr inbounds [32 x i8], ptr %9, i64 0, i64 0
  call void @llvm.memcpy.p0.p0.i64(ptr align 4 %7, ptr align 4 %10, i64 32, i1 false)
  %11 = load ptr, ptr %4, align 8, !tbaa !34
  %12 = getelementptr inbounds nuw %struct.object_id, ptr %11, i32 0, i32 1
  %13 = load i32, ptr %12, align 4, !tbaa !130
  %14 = load ptr, ptr %3, align 8, !tbaa !34
  %15 = getelementptr inbounds nuw %struct.object_id, ptr %14, i32 0, i32 1
  store i32 %13, ptr %15, align 4, !tbaa !130
  ret void
}

; Function Attrs: nounwind uwtable
define internal void @prefetch(ptr noundef %0, ptr noundef %1) #0 {
  %3 = alloca ptr, align 8
  %4 = alloca ptr, align 8
  %5 = alloca ptr, align 8
  %6 = alloca ptr, align 8
  store ptr %0, ptr %3, align 8, !tbaa !11
  store ptr %1, ptr %4, align 8, !tbaa !34
  call void @llvm.lifetime.start.p0(i64 8, ptr %5) #8
  call void @llvm.lifetime.start.p0(i64 8, ptr %6) #8
  %7 = load ptr, ptr %3, align 8, !tbaa !11
  %8 = getelementptr inbounds nuw %struct.walker, ptr %7, i32 0, i32 0
  %9 = load ptr, ptr %8, align 8, !tbaa !33
  store ptr %9, ptr %6, align 8, !tbaa !9
  %10 = call ptr @xmalloc(i64 noundef 88)
  store ptr %10, ptr %5, align 8, !tbaa !40
  %11 = load ptr, ptr %3, align 8, !tbaa !11
  %12 = load ptr, ptr %5, align 8, !tbaa !40
  %13 = getelementptr inbounds nuw %struct.object_request, ptr %12, i32 0, i32 0
  store ptr %11, ptr %13, align 8, !tbaa !42
  %14 = load ptr, ptr %5, align 8, !tbaa !40
  %15 = getelementptr inbounds nuw %struct.object_request, ptr %14, i32 0, i32 1
  %16 = load ptr, ptr %4, align 8, !tbaa !34
  call void @oidcpy(ptr noundef %15, ptr noundef %16)
  %17 = load ptr, ptr %6, align 8, !tbaa !9
  %18 = getelementptr inbounds nuw %struct.walker_data, ptr %17, i32 0, i32 2
  %19 = load ptr, ptr %18, align 8, !tbaa !13
  %20 = load ptr, ptr %5, align 8, !tbaa !40
  %21 = getelementptr inbounds nuw %struct.object_request, ptr %20, i32 0, i32 2
  store ptr %19, ptr %21, align 8, !tbaa !48
  %22 = load ptr, ptr %5, align 8, !tbaa !40
  %23 = getelementptr inbounds nuw %struct.object_request, ptr %22, i32 0, i32 3
  store i32 0, ptr %23, align 8, !tbaa !49
  %24 = load ptr, ptr %5, align 8, !tbaa !40
  %25 = getelementptr inbounds nuw %struct.object_request, ptr %24, i32 0, i32 4
  store ptr null, ptr %25, align 8, !tbaa !50
  %26 = load ptr, ptr %3, align 8, !tbaa !11
  %27 = getelementptr inbounds nuw %struct.walker, ptr %26, i32 0, i32 5
  %28 = load i32, ptr %27, align 8, !tbaa !51
  store i32 %28, ptr @http_is_verbose, align 4, !tbaa !52
  %29 = load ptr, ptr %5, align 8, !tbaa !40
  %30 = getelementptr inbounds nuw %struct.object_request, ptr %29, i32 0, i32 5
  call void @list_add_tail(ptr noundef %30, ptr noundef @object_queue_head)
  call void @fill_active_slots()
  call void @step_active_slots()
  call void @llvm.lifetime.end.p0(i64 8, ptr %6) #8
  call void @llvm.lifetime.end.p0(i64 8, ptr %5) #8
  ret void
}