; Function Attrs: nounwind uwtable
define internal void @prefetch(ptr noundef %0, ptr noundef readonly captures(none) %1) #0 {
  %3 = load ptr, ptr %0, align 8, !tbaa !26
  %4 = tail call ptr @xmalloc(i64 noundef 88) #11
  store ptr %0, ptr %4, align 8, !tbaa !74
  %5 = getelementptr inbounds nuw i8, ptr %4, i64 8
  tail call void @llvm.memcpy.p0.p0.i64(ptr noundef nonnull align 4 dereferenceable(32) %5, ptr noundef nonnull readonly align 4 dereferenceable(32) %1, i64 32, i1 false)
  %6 = getelementptr inbounds nuw i8, ptr %1, i64 32
  %7 = load i32, ptr %6, align 4, !tbaa !75
  %8 = getelementptr inbounds nuw i8, ptr %4, i64 40
  store i32 %7, ptr %8, align 4, !tbaa !75
  %9 = getelementptr inbounds nuw i8, ptr %3, i64 16
  %10 = load ptr, ptr %9, align 8, !tbaa !4
  %11 = getelementptr inbounds nuw i8, ptr %4, i64 48
  store ptr %10, ptr %11, align 8, !tbaa !76
  %12 = getelementptr inbounds nuw i8, ptr %4, i64 56
  store i32 0, ptr %12, align 8, !tbaa !33
  %13 = getelementptr inbounds nuw i8, ptr %4, i64 64
  store ptr null, ptr %13, align 8, !tbaa !38
  %14 = getelementptr inbounds nuw i8, ptr %0, i64 40
  %15 = load i32, ptr %14, align 8, !tbaa !58
  store i32 %15, ptr @http_is_verbose, align 4, !tbaa !77
  %16 = getelementptr inbounds nuw i8, ptr %4, i64 72
  %17 = load ptr, ptr getelementptr inbounds nuw (i8, ptr @object_queue_head, i64 8), align 8, !tbaa !48
  store ptr %16, ptr %17, align 8, !tbaa !27
  store ptr @object_queue_head, ptr %16, align 8, !tbaa !27
  %18 = getelementptr inbounds nuw i8, ptr %4, i64 80
  store ptr %17, ptr %18, align 8, !tbaa !48
  store ptr %16, ptr getelementptr inbounds nuw (i8, ptr @object_queue_head, i64 8), align 8, !tbaa !48
  tail call void @fill_active_slots() #11
  tail call void @step_active_slots() #11
  ret void
}